target datalayout = "e-m:e-p270:32:32-p271:32:32-p272:64:64-i64:64-i128:128-f80:128-n8:16:32:64-S128"
target triple = "x86_64-pc-linux-gnu"

%struct.cl_engine = type { i32, i32, i32, [2 x i32], i32, i32, i32, ptr, i32, i64, i32, i32, i64, i64, i32, i32, i32, i32, ptr, ptr, ptr, ptr, ptr, ptr, ptr, ptr, ptr, ptr, ptr, ptr, ptr, ptr, ptr, ptr, ptr, ptr, ptr, i64, ptr, %struct.crtmgr, ptr, ptr, ptr, ptr, ptr, ptr, ptr, ptr, ptr, ptr, ptr, ptr, ptr, ptr, ptr, ptr, ptr, %struct.cli_all_bc, [7 x ptr], [7 x i32], i32, i32, i32, i32, i64, i64, i64, i64, i64, ptr, ptr, ptr, ptr, ptr, ptr, ptr, ptr, ptr, i32, i32, i32, i64, i64, i64, ptr }
%struct.crtmgr = type { ptr, i32 }
%struct.cli_all_bc = type { ptr, i32, ptr, %struct.cli_environment, i32 }
%struct.cli_environment = type { i32, i32, i32, i32, i32, i32, i32, [65 x i8], [65 x i8], [65 x i8], [65 x i8], [65 x i8], [65 x i8], [65 x i8], i8, i8, i8, i8, i8, i8, i8, i8, i8 }
%struct.CACHE = type { %struct.cache_set, i32, i32, %union.pthread_mutex_t }
%struct.cache_set = type { ptr, ptr, ptr, ptr }
%union.pthread_mutex_t = type { %struct.__pthread_mutex_s }
%struct.__pthread_mutex_s = type { i32, i32, i32, i32, i32, i16, i16, %struct.__pthread_internal_list }
%struct.__pthread_internal_list = type { ptr, ptr }

; Function Attrs: nounwind uwtable
define internal void @cacheset_destroy(ptr noundef %0, ptr noundef %1) #0 {
  %3 = alloca ptr, align 8
  %4 = alloca ptr, align 8
  store ptr %0, ptr %3, align 8
  store ptr %1, ptr %4, align 8
  %5 = load ptr, ptr %4, align 8
  %6 = load ptr, ptr %3, align 8
  %7 = getelementptr inbounds %struct.cache_set, ptr %6, i32 0, i32 0
  %8 = load ptr, ptr %7, align 8
  call void @mpool_free(ptr noundef %5, ptr noundef %8)
  %9 = load ptr, ptr %3, align 8
  %10 = getelementptr inbounds %struct.cache_set, ptr %9, i32 0, i32 0
  store ptr null, ptr %10, align 8
  ret void
}

; Function Attrs: nounwind uwtable
define void @clean_cache_destroy(ptr noundef %0) #0 {
  %2 = alloca ptr, align 8
  %3 = alloca ptr, align 8
  %4 = alloca i32, align 4
  store ptr %0, ptr %2, align 8
  %5 = load ptr, ptr %2, align 8
  %6 = icmp ne ptr %5, null
  br i1 %6, label %7, label %12

7:                                                ; preds = %1
  %8 = load ptr, ptr %2, align 8
  %9 = getelementptr inbounds %struct.cl_engine, ptr %8, i32 0, i32 35
  %10 = load ptr, ptr %9, align 8
  store ptr %10, ptr %3, align 8
  %11 = icmp ne ptr %10, null
  br i1 %11, label %13, label %12

12:                                               ; preds = %7, %1
  br label %50

13:                                               ; preds = %7
  %14 = load ptr, ptr %2, align 8
  %15 = getelementptr inbounds %struct.cl_engine, ptr %14, i32 0, i32 9
  %16 = load i64, ptr %15, align 8
  %17 = and i64 %16, 1
  %18 = icmp ne i64 %17, 0
  br i1 %18, label %19, label %20

19:                                               ; preds = %13
  br label %50

20:                                               ; preds = %13
  store i32 0, ptr %4, align 4
  br label %21

21:                                               ; preds = %42, %20
  %22 = load i32, ptr %4, align 4
  %23 = load ptr, ptr %3, align 8
  %24 = getelementptr inbounds %struct.CACHE, ptr %23, i32 0, i32 1
  %25 = load i32, ptr %24, align 8
  %26 = icmp ult i32 %22, %25
  br i1 %26, label %27, label %45

27:                                               ; preds = %21
  %28 = load ptr, ptr %3, align 8
  %29 = load i32, ptr %4, align 4
  %30 = zext i32 %29 to i64
  %31 = getelementptr inbounds %struct.CACHE, ptr %28, i64 %30
  %32 = getelementptr inbounds %struct.CACHE, ptr %31, i32 0, i32 0
  %33 = load ptr, ptr %2, align 8
  %34 = getelementptr inbounds %struct.cl_engine, ptr %33, i32 0, i32 38
  %35 = load ptr, ptr %34, align 8
  call void @cacheset_destroy(ptr noundef %32, ptr noundef %35)
  %36 = load ptr, ptr %3, align 8
  %37 = load i32, ptr %4, align 4
  %38 = zext i32 %37 to i64
  %39 = getelementptr inbounds %struct.CACHE, ptr %36, i64 %38
  %40 = getelementptr inbounds %struct.CACHE, ptr %39, i32 0, i32 3
  %41 = call i32 @pthread_mutex_destroy(ptr noundef %40) #6
  br label %42

42:                                               ; preds = %27
  %43 = load i32, ptr %4, align 4
  %44 = add i32 %43, 1
  store i32 %44, ptr %4, align 4
  br label %21

45:                                               ; preds = %21
  %46 = load ptr, ptr %2, align 8
  %47 = getelementptr inbounds %struct.cl_engine, ptr %46, i32 0, i32 38
  %48 = load ptr, ptr %47, align 8
  %49 = load ptr, ptr %3, align 8
  call void @mpool_free(ptr noundef %48, ptr noundef %49)
  br label %50

50:                                               ; preds = %45, %19, %12
  ret void
}