; Function Attrs: nounwind uwtable
define void @clean_cache_destroy(ptr noundef readonly %0) local_unnamed_addr #0 {
  %.not = icmp eq ptr %0, null
  br i1 %.not, label %23, label %2

2:                                                ; preds = %1
  %3 = getelementptr inbounds i8, ptr %0, i64 232
  %4 = load ptr, ptr %3, align 8
  %.not14 = icmp eq ptr %4, null
  br i1 %.not14, label %23, label %5

5:                                                ; preds = %2
  %6 = getelementptr inbounds i8, ptr %0, i64 48
  %7 = load i64, ptr %6, align 8
  %8 = and i64 %7, 1
  %.not15 = icmp eq i64 %8, 0
  br i1 %.not15, label %.preheader, label %23

.preheader:                                       ; preds = %5
  %9 = getelementptr inbounds i8, ptr %4, i64 32
  %10 = load i32, ptr %9, align 8
  %.not17 = icmp eq i32 %10, 0
  br i1 %.not17, label %._crit_edge, label %.lr.ph

.lr.ph:                                           ; preds = %.preheader
  %11 = getelementptr inbounds i8, ptr %0, i64 256
  br label %12

12:                                               ; preds = %.lr.ph, %12
  %indvars.iv = phi i64 [ 0, %.lr.ph ], [ %indvars.iv.next, %12 ]
  %13 = getelementptr inbounds %struct.CACHE, ptr %4, i64 %indvars.iv
  %14 = load ptr, ptr %11, align 8
  %15 = load ptr, ptr %13, align 8
  tail call void @mpool_free(ptr noundef %14, ptr noundef %15) #9
  store ptr null, ptr %13, align 8
  %16 = getelementptr inbounds i8, ptr %13, i64 40
  %17 = tail call i32 @pthread_mutex_destroy(ptr noundef nonnull %16) #9
  %indvars.iv.next = add nuw nsw i64 %indvars.iv, 1
  %18 = load i32, ptr %9, align 8
  %19 = zext i32 %18 to i64
  %20 = icmp ult i64 %indvars.iv.next, %19
  br i1 %20, label %12, label %._crit_edge

._crit_edge:                                      ; preds = %12, %.preheader
  %21 = getelementptr inbounds i8, ptr %0, i64 256
  %22 = load ptr, ptr %21, align 8
  tail call void @mpool_free(ptr noundef %22, ptr noundef nonnull %4) #9
  br label %23

23:                                               ; preds = %5, %1, %2, %._crit_edge
  ret void
}